; ModuleID = '40/1696.c'
source_filename = "40/1696.c"
target datalayout = "e-m:e-p270:32:32-p271:32:32-p272:64:64-i64:64-f80:128-n8:16:32:64-S128"
target triple = "x86_64-pc-linux-gnu"

@.str = private unnamed_addr constant [11 x i8] c"%f%f%f%f%f\00", align 1
@.str.1 = private unnamed_addr constant [14 x i8] c"Invalid input\00", align 1
@.str.2 = private unnamed_addr constant [5 x i8] c"%.4f\00", align 1

; Function Attrs: noinline nounwind uwtable
define dso_local i32 @main() #0 {
  %1 = alloca i32, align 4
  %2 = alloca float, align 4
  %3 = alloca float, align 4
  %4 = alloca float, align 4
  %5 = alloca float, align 4
  %6 = alloca float, align 4
  %7 = alloca float, align 4
  %8 = alloca float, align 4
  store i32 0, i32* %1, align 4
  %9 = call i32 (i8*, ...) @__isoc99_scanf(i8* getelementptr inbounds ([11 x i8], [11 x i8]* @.str, i64 0, i64 0), float* %2, float* %3, float* %4, float* %5, float* %7)
  %10 = load float, float* %2, align 4
  %11 = load float, float* %3, align 4
  %12 = fadd float %10, %11
  %13 = load float, float* %4, align 4
  %14 = fadd float %12, %13
  %15 = load float, float* %5, align 4
  %16 = fadd float %14, %15
  %17 = fdiv float %16, 2.000000e+00
  store float %17, float* %8, align 4
  %18 = load float, float* %8, align 4
  %19 = load float, float* %2, align 4
  %20 = fsub float %18, %19
  %21 = load float, float* %8, align 4
  %22 = load float, float* %3, align 4
  %23 = fsub float %21, %22
  %24 = fmul float %20, %23
  %25 = load float, float* %8, align 4
  %26 = load float, float* %4, align 4
  %27 = fsub float %25, %26
  %28 = fmul float %24, %27
  %29 = load float, float* %8, align 4
  %30 = load float, float* %5, align 4
  %31 = fsub float %29, %30
  %32 = fmul float %28, %31
  %33 = fpext float %32 to double
  %34 = load float, float* %2, align 4
  %35 = load float, float* %3, align 4
  %36 = fmul float %34, %35
  %37 = load float, float* %4, align 4
  %38 = fmul float %36, %37
  %39 = load float, float* %5, align 4
  %40 = fmul float %38, %39
  %41 = fpext float %40 to double
  %42 = load float, float* %7, align 4
  %43 = fdiv float %42, 3.600000e+02
  %44 = fpext float %43 to double
  %45 = fmul double %44, 0x400921FB4D12D84A
  %46 = call double @cos(double %45) #3
  %47 = fmul double %41, %46
  %48 = load float, float* %7, align 4
  %49 = fdiv float %48, 3.600000e+02
  %50 = fpext float %49 to double
  %51 = fmul double %50, 0x400921FB4D12D84A
  %52 = call double @cos(double %51) #3
  %53 = fmul double %47, %52
  %54 = fsub double %33, %53
  %55 = fptrunc double %54 to float
  store float %55, float* %6, align 4
  %56 = load float, float* %6, align 4
  %57 = fcmp olt float %56, 0.000000e+00
  br i1 %57, label %58, label %60

58:                                               ; preds = %0
  %59 = call i32 (i8*, ...) @printf(i8* getelementptr inbounds ([14 x i8], [14 x i8]* @.str.1, i64 0, i64 0))
  br label %65

60:                                               ; preds = %0
  %61 = load float, float* %6, align 4
  %62 = fpext float %61 to double
  %63 = call double @sqrt(double %62) #3
  %64 = call i32 (i8*, ...) @printf(i8* getelementptr inbounds ([5 x i8], [5 x i8]* @.str.2, i64 0, i64 0), double %63)
  br label %65

65:                                               ; preds = %60, %58
  ret i32 0
}

declare dso_local i32 @__isoc99_scanf(i8*, ...) #1

; Function Attrs: nounwind
declare dso_local double @cos(double) #2

declare dso_local i32 @printf(i8*, ...) #1

; Function Attrs: nounwind
declare dso_local double @sqrt(double) #2


!llvm.module.flags = !{!0}
!llvm.ident = !{!1}

!0 = !{i32 1, !"wchar_size", i32 4}
!1 = !{!"clang version 10.0.0-4ubuntu1 "}
